(dp0
I0
Vshow_help
p1
sI1
Vcontact_methods_phone
p2
sI2
Vcontact_methods_email
p3
sI3
Vmake_appointment
p4
sI4
Vfind_nearest_branch
p5
sI5
Vsepa_information
p6
sI6
Vtan_information
p7
sI7
Vproduct_info_all
p8
sI8
Vproduct_info_loan
p9
sI9
Vproduct_info_account
p10
sI10
Vproduct_info_credit_card
p11
sI11
Vaccount_fees
p12
sI12
Vguide_account_opening
p13
sI13
Vguide_card_blocking
p14
sI14
Vguide_mobile_banking
p15
sI15
Vrequest_branch_banking
p16
sI16
Vguide_get_loan
p17
sI17
Vaccount_switching_support
p18
sI18
Vonline_banking_security
p19
sI19
Vrisk_money_loss
p20
sI20
Vguide_kyc
p21
sI21
Vupdate_personal_info
p22
sI22
Vrequest_account_balance
p23
s.